target datalayout = "e-m:e-p270:32:32-p271:32:32-p272:64:64-i64:64-i128:128-f80:128-n8:16:32:64-S128"
target triple = "x86_64-unknown-linux-gnu"

%class.btSimpleDynamicsWorld = type <{ %class.btDynamicsWorld, ptr, i8, [3 x i8], %class.btVector3, [4 x i8] }>
%class.btDynamicsWorld = type { %class.btCollisionWorld.base, ptr, ptr, ptr, %struct.btContactSolverInfo }
%class.btCollisionWorld.base = type <{ ptr, %class.btAlignedObjectArray, ptr, %struct.btDispatcherInfo, ptr, ptr, i8 }>
%class.btAlignedObjectArray = type <{ %class.btAlignedAllocator, [3 x i8], i32, i32, [4 x i8], ptr, i8, [7 x i8] }>
%class.btAlignedAllocator = type { i8 }
%struct.btDispatcherInfo = type <{ float, i32, i32, float, i8, [7 x i8], ptr, i8, i8, i8, i8, float, i8, [3 x i8], float, i8, [7 x i8] }>
%struct.btContactSolverInfo = type { %struct.btContactSolverInfoData }
%struct.btContactSolverInfoData = type { float, float, float, float, float, i32, float, float, float, float, float, float, float, float, float, float, i32, float, float, float, float, float, i32, i32, i32, float, float, float, float, i8, i8, i32, i32 }
%class.btVector3 = type { [4 x float] }
%class.btTransform = type { %class.btMatrix3x3, %class.btVector3 }
%class.btMatrix3x3 = type { [3 x %class.btVector3] }
%class.btAlignedObjectArray.4 = type <{ %class.btAlignedAllocator.5, [3 x i8], i32, i32, [4 x i8], ptr, i8, [7 x i8] }>
%class.btAlignedAllocator.5 = type { i8 }
%class.btCollisionObject = type <{ ptr, %class.btTransform, %class.btTransform, %class.btVector3, %class.btVector3, %class.btVector3, i32, float, ptr, ptr, ptr, ptr, i32, i32, i32, i32, i32, float, float, float, float, float, float, float, i32, [4 x i8], ptr, i32, i32, i32, float, float, float, i32, [4 x i8], %class.btAlignedObjectArray.4, i32, %class.btVector3, [4 x i8] }>

; Function Attrs: mustprogress nounwind uwtable
define linkonce_odr dso_local noundef ptr @_ZN11btRigidBody17getCollisionShapeEv(ptr noundef nonnull align 8 dereferenceable(744) %this) #1 comdat align 2 {
entry:
  %this.addr = alloca ptr, align 8
  store ptr %this, ptr %this.addr, align 8
  %this1 = load ptr, ptr %this.addr, align 8
  %m_collisionShape = getelementptr inbounds %class.btCollisionObject, ptr %this1, i32 0, i32 9
  %0 = load ptr, ptr %m_collisionShape, align 8
  ret ptr %0
}

; Function Attrs: mustprogress uwtable
define dso_local void @_ZN21btSimpleDynamicsWorld12addRigidBodyEP11btRigidBody(ptr noundef nonnull align 8 dereferenceable(308) %this, ptr noundef %body) unnamed_addr #2 align 2 {
entry:
  %this.addr = alloca ptr, align 8
  %body.addr = alloca ptr, align 8
  store ptr %this, ptr %this.addr, align 8
  store ptr %body, ptr %body.addr, align 8
  %this1 = load ptr, ptr %this.addr, align 8
  %0 = load ptr, ptr %body.addr, align 8
  %m_gravity = getelementptr inbounds %class.btSimpleDynamicsWorld, ptr %this1, i32 0, i32 4
  call void @_ZN11btRigidBody10setGravityERK9btVector3(ptr noundef nonnull align 8 dereferenceable(744) %0, ptr noundef nonnull align 4 dereferenceable(16) %m_gravity)
  %1 = load ptr, ptr %body.addr, align 8
  %call = call noundef ptr @_ZN11btRigidBody17getCollisionShapeEv(ptr noundef nonnull align 8 dereferenceable(744) %1)
  %tobool = icmp ne ptr %call, null
  br i1 %tobool, label %if.then, label %if.end

if.then:                                          ; preds = %entry
  %2 = load ptr, ptr %body.addr, align 8
  %vtable = load ptr, ptr %this1, align 8
  %vfn = getelementptr inbounds ptr, ptr %vtable, i64 9
  %3 = load ptr, ptr %vfn, align 8
  call void %3(ptr noundef nonnull align 8 dereferenceable(121) %this1, ptr noundef %2, i32 noundef 1, i32 noundef -1)
  br label %if.end

if.end:                                           ; preds = %if.then, %entry
  ret void
}